; ModuleID = '14/718.c'
source_filename = "14/718.c"
target datalayout = "e-m:e-p270:32:32-p271:32:32-p272:64:64-i64:64-f80:128-n8:16:32:64-S128"
target triple = "x86_64-pc-linux-gnu"

%struct.student = type { [100000 x i8], i32, i32 }

@.str = private unnamed_addr constant [3 x i8] c"%d\00", align 1
@.str.1 = private unnamed_addr constant [9 x i8] c"%s %d %d\00", align 1
@.str.2 = private unnamed_addr constant [7 x i8] c"%d %d\0A\00", align 1

; Function Attrs: noinline nounwind uwtable
define dso_local i32 @main() #0 {
  %1 = alloca i32, align 4
  %2 = alloca %struct.student, align 4
  %3 = alloca i32, align 4
  %4 = alloca i32, align 4
  %5 = alloca i32, align 4
  %6 = alloca i32, align 4
  %7 = alloca i32, align 4
  %8 = alloca i32, align 4
  %9 = alloca i32, align 4
  %10 = alloca i32, align 4
  %11 = alloca i32, align 4
  store i32 0, i32* %1, align 4
  store i32 0, i32* %8, align 4
  store i32 0, i32* %7, align 4
  store i32 0, i32* %6, align 4
  store i32 0, i32* %11, align 4
  store i32 0, i32* %10, align 4
  store i32 0, i32* %9, align 4
  %12 = call i32 (i8*, ...) @__isoc99_scanf(i8* getelementptr inbounds ([3 x i8], [3 x i8]* @.str, i64 0, i64 0), i32* %3)
  store i32 1, i32* %4, align 4
  br label %13

13:                                               ; preds = %83, %0
  %14 = load i32, i32* %4, align 4
  %15 = load i32, i32* %3, align 4
  %16 = icmp sle i32 %14, %15
  br i1 %16, label %17, label %86

17:                                               ; preds = %13
  %18 = getelementptr inbounds %struct.student, %struct.student* %2, i32 0, i32 0
  %19 = getelementptr inbounds [100000 x i8], [100000 x i8]* %18, i64 0, i64 0
  %20 = getelementptr inbounds %struct.student, %struct.student* %2, i32 0, i32 1
  %21 = getelementptr inbounds %struct.student, %struct.student* %2, i32 0, i32 2
  %22 = call i32 (i8*, ...) @__isoc99_scanf(i8* getelementptr inbounds ([9 x i8], [9 x i8]* @.str.1, i64 0, i64 0), i8* %19, i32* %20, i32* %21)
  %23 = getelementptr inbounds %struct.student, %struct.student* %2, i32 0, i32 1
  %24 = load i32, i32* %23, align 4
  %25 = getelementptr inbounds %struct.student, %struct.student* %2, i32 0, i32 2
  %26 = load i32, i32* %25, align 4
  %27 = add nsw i32 %24, %26
  store i32 %27, i32* %5, align 4
  %28 = load i32, i32* %5, align 4
  %29 = load i32, i32* %6, align 4
  %30 = icmp sgt i32 %28, %29
  br i1 %30, label %31, label %38

31:                                               ; preds = %17
  %32 = load i32, i32* %7, align 4
  store i32 %32, i32* %8, align 4
  %33 = load i32, i32* %6, align 4
  store i32 %33, i32* %7, align 4
  %34 = load i32, i32* %5, align 4
  store i32 %34, i32* %6, align 4
  %35 = load i32, i32* %10, align 4
  store i32 %35, i32* %11, align 4
  %36 = load i32, i32* %9, align 4
  store i32 %36, i32* %10, align 4
  %37 = load i32, i32* %4, align 4
  store i32 %37, i32* %9, align 4
  br label %82

38:                                               ; preds = %17
  %39 = load i32, i32* %5, align 4
  %40 = load i32, i32* %6, align 4
  %41 = icmp eq i32 %39, %40
  br i1 %41, label %42, label %48

42:                                               ; preds = %38
  %43 = load i32, i32* %7, align 4
  store i32 %43, i32* %8, align 4
  %44 = load i32, i32* %6, align 4
  store i32 %44, i32* %7, align 4
  %45 = load i32, i32* %6, align 4
  store i32 %45, i32* %6, align 4
  %46 = load i32, i32* %10, align 4
  store i32 %46, i32* %11, align 4
  %47 = load i32, i32* %4, align 4
  store i32 %47, i32* %10, align 4
  br label %81

48:                                               ; preds = %38
  %49 = load i32, i32* %5, align 4
  %50 = load i32, i32* %6, align 4
  %51 = icmp slt i32 %49, %50
  br i1 %51, label %52, label %60

52:                                               ; preds = %48
  %53 = load i32, i32* %5, align 4
  %54 = load i32, i32* %7, align 4
  %55 = icmp sgt i32 %53, %54
  br i1 %55, label %56, label %60

56:                                               ; preds = %52
  %57 = load i32, i32* %7, align 4
  store i32 %57, i32* %8, align 4
  %58 = load i32, i32* %5, align 4
  store i32 %58, i32* %7, align 4
  %59 = load i32, i32* %10, align 4
  store i32 %59, i32* %11, align 4
  br label %80

60:                                               ; preds = %52, %48
  %61 = load i32, i32* %5, align 4
  %62 = load i32, i32* %7, align 4
  %63 = icmp eq i32 %61, %62
  br i1 %63, label %64, label %67

64:                                               ; preds = %60
  %65 = load i32, i32* %7, align 4
  store i32 %65, i32* %8, align 4
  %66 = load i32, i32* %4, align 4
  store i32 %66, i32* %11, align 4
  br label %79

67:                                               ; preds = %60
  %68 = load i32, i32* %5, align 4
  %69 = load i32, i32* %7, align 4
  %70 = icmp slt i32 %68, %69
  br i1 %70, label %71, label %78

71:                                               ; preds = %67
  %72 = load i32, i32* %5, align 4
  %73 = load i32, i32* %8, align 4
  %74 = icmp sgt i32 %72, %73
  br i1 %74, label %75, label %78

75:                                               ; preds = %71
  %76 = load i32, i32* %5, align 4
  store i32 %76, i32* %8, align 4
  %77 = load i32, i32* %4, align 4
  store i32 %77, i32* %11, align 4
  br label %78

78:                                               ; preds = %75, %71, %67
  br label %79

79:                                               ; preds = %78, %64
  br label %80

80:                                               ; preds = %79, %56
  br label %81

81:                                               ; preds = %80, %42
  br label %82

82:                                               ; preds = %81, %31
  br label %83

83:                                               ; preds = %82
  %84 = load i32, i32* %4, align 4
  %85 = add nsw i32 %84, 1
  store i32 %85, i32* %4, align 4
  br label %13

86:                                               ; preds = %13
  %87 = load i32, i32* %9, align 4
  %88 = load i32, i32* %6, align 4
  %89 = call i32 (i8*, ...) @printf(i8* getelementptr inbounds ([7 x i8], [7 x i8]* @.str.2, i64 0, i64 0), i32 %87, i32 %88)
  %90 = load i32, i32* %10, align 4
  %91 = load i32, i32* %7, align 4
  %92 = call i32 (i8*, ...) @printf(i8* getelementptr inbounds ([7 x i8], [7 x i8]* @.str.2, i64 0, i64 0), i32 %90, i32 %91)
  %93 = load i32, i32* %11, align 4
  %94 = load i32, i32* %8, align 4
  %95 = call i32 (i8*, ...) @printf(i8* getelementptr inbounds ([7 x i8], [7 x i8]* @.str.2, i64 0, i64 0), i32 %93, i32 %94)
  ret i32 0
}

declare dso_local i32 @__isoc99_scanf(i8*, ...) #1

declare dso_local i32 @printf(i8*, ...) #1


!llvm.module.flags = !{!0}
!llvm.ident = !{!1}

!0 = !{i32 1, !"wchar_size", i32 4}
!1 = !{!"clang version 10.0.0-4ubuntu1 "}
